; Function Attrs: mustprogress null_pointer_is_valid sspstrong uwtable
define void @_ZN13IOGraphDialog15copyFromProfileE7QString(ptr noundef readonly align 8 captures(none) dereferenceable_or_null(384) %0, ptr noundef %1) #2 align 2 personality ptr @__gxx_personality_v0 {
  %3 = alloca ptr, align 8
  %4 = alloca %class.QByteArray, align 8
  %5 = getelementptr inbounds nuw i8, ptr %0, i64 160
  %6 = load ptr, ptr %5, align 8
  %7 = icmp eq ptr %6, null
  br i1 %7, label %_ZeqRK8QPointerI8UatModelEDn.exit.thread, label %8

8:                                                ; preds = %2
  %9 = getelementptr inbounds nuw i8, ptr %6, i64 4
  %10 = load atomic i32, ptr %9 monotonic, align 4
  %11 = icmp eq i32 %10, 0
  br i1 %11, label %_ZeqRK8QPointerI8UatModelEDn.exit.thread, label %_ZeqRK8QPointerI8UatModelEDn.exit

_ZeqRK8QPointerI8UatModelEDn.exit:                ; preds = %8
  %12 = getelementptr inbounds nuw i8, ptr %0, i64 168
  %13 = load ptr, ptr %12, align 8
  %14 = icmp eq ptr %13, null
  br i1 %14, label %_ZeqRK8QPointerI8UatModelEDn.exit.thread, label %15

15:                                               ; preds = %_ZeqRK8QPointerI8UatModelEDn.exit
  call void @llvm.lifetime.start.p0(i64 8, ptr nonnull %3) #33
  store ptr null, ptr %3, align 8
  %16 = load ptr, ptr @_ZL8iog_uat_, align 8
  call void @llvm.lifetime.start.p0(i64 24, ptr nonnull %4) #33
  call void @_ZN7QString13toUtf8_helperERKS_(ptr dead_on_unwind nonnull writable sret(%class.QByteArray) align 8 %4, ptr noundef align 8 dereferenceable(24) dereferenceable_or_null(24) %1)
  %17 = getelementptr inbounds nuw i8, ptr %4, i64 8
  %18 = load ptr, ptr %17, align 8
  %.not.i.i = icmp eq ptr %18, null
  %spec.select.i.i = select i1 %.not.i.i, ptr @_ZN10QByteArray6_emptyE, ptr %18
  %19 = invoke zeroext i1 @uat_load(ptr noundef %16, ptr noundef nonnull %spec.select.i.i, ptr noundef nonnull %3)
          to label %20 unwind label %28

20:                                               ; preds = %15
  %21 = load ptr, ptr %4, align 8
  %.not.i.i.i = icmp eq ptr %21, null
  br i1 %.not.i.i.i, label %_ZN10QByteArrayD2Ev.exit, label %_ZN17QArrayDataPointerIcE5derefEv.exit.i.i

_ZN17QArrayDataPointerIcE5derefEv.exit.i.i:       ; preds = %20
  %22 = atomicrmw sub ptr %21, i32 1 seq_cst, align 4
  %.not.i.i2 = icmp eq i32 %22, 1
  br i1 %.not.i.i2, label %23, label %_ZN10QByteArrayD2Ev.exit

23:                                               ; preds = %_ZN17QArrayDataPointerIcE5derefEv.exit.i.i
  %24 = load ptr, ptr %4, align 8
  call void @_ZN10QArrayData10deallocateEPS_xx(ptr noundef %24, i64 noundef 1, i64 noundef 8) #33
  br label %_ZN10QByteArrayD2Ev.exit

_ZN10QByteArrayD2Ev.exit:                         ; preds = %20, %_ZN17QArrayDataPointerIcE5derefEv.exit.i.i, %23
  call void @llvm.lifetime.end.p0(i64 24, ptr nonnull %4) #33
  %25 = load ptr, ptr @_ZL8iog_uat_, align 8
  br i1 %19, label %26, label %34

26:                                               ; preds = %_ZN10QByteArrayD2Ev.exit
  %27 = getelementptr inbounds nuw i8, ptr %25, i64 152
  store i8 1, ptr %27, align 8
  br label %38

28:                                               ; preds = %15
  %29 = landingpad { ptr, i32 }
          cleanup
  %30 = load ptr, ptr %4, align 8
  %.not.i.i.i3 = icmp eq ptr %30, null
  br i1 %.not.i.i.i3, label %_ZN10QByteArrayD2Ev.exit6, label %_ZN17QArrayDataPointerIcE5derefEv.exit.i.i4

_ZN17QArrayDataPointerIcE5derefEv.exit.i.i4:      ; preds = %28
  %31 = atomicrmw sub ptr %30, i32 1 seq_cst, align 4
  %.not.i.i5 = icmp eq i32 %31, 1
  br i1 %.not.i.i5, label %32, label %_ZN10QByteArrayD2Ev.exit6

32:                                               ; preds = %_ZN17QArrayDataPointerIcE5derefEv.exit.i.i4
  %33 = load ptr, ptr %4, align 8
  call void @_ZN10QArrayData10deallocateEPS_xx(ptr noundef %33, i64 noundef 1, i64 noundef 8) #33
  br label %_ZN10QByteArrayD2Ev.exit6

_ZN10QByteArrayD2Ev.exit6:                        ; preds = %28, %_ZN17QArrayDataPointerIcE5derefEv.exit.i.i4, %32
  call void @llvm.lifetime.end.p0(i64 24, ptr nonnull %4) #33
  call void @llvm.lifetime.end.p0(i64 8, ptr nonnull %3) #33
  resume { ptr, i32 } %29

34:                                               ; preds = %_ZN10QByteArrayD2Ev.exit
  %35 = load ptr, ptr %25, align 8
  %36 = load ptr, ptr %3, align 8
  call void (ptr, ...) @report_failure(ptr noundef nonnull @.str.49, ptr noundef %35, ptr noundef %36)
  %37 = load ptr, ptr %3, align 8
  call void @g_free(ptr noundef %37)
  br label %38

38:                                               ; preds = %34, %26
  call void @llvm.lifetime.end.p0(i64 8, ptr nonnull %3) #33
  br label %_ZeqRK8QPointerI8UatModelEDn.exit.thread

_ZeqRK8QPointerI8UatModelEDn.exit.thread:         ; preds = %2, %8, %_ZeqRK8QPointerI8UatModelEDn.exit, %38
  ret void
}